target datalayout = "e-m:e-p270:32:32-p271:32:32-p272:64:64-i64:64-i128:128-f80:128-n8:16:32:64-S128"
target triple = "x86_64-pc-linux-gnu"

%struct.AVCodecContext = type { ptr, i32, i32, ptr, i32, i32, ptr, ptr, ptr, i64, i32, i32, ptr, i32, %struct.AVRational, %struct.AVRational, %struct.AVRational, i32, i32, i32, i32, i32, %struct.AVRational, i32, i32, i32, i32, i32, i32, i32, i32, i32, i32, i32, ptr, ptr, i32, float, float, float, float, float, float, float, float, float, i32, i32, i32, i32, i32, i32, i32, i32, i32, i32, i32, i32, ptr, ptr, ptr, i32, i32, i32, i32, i32, i32, i32, i32, i32, i32, %struct.AVChannelLayout, i32, i32, i32, i32, i32, i32, i32, i32, ptr, i32, i32, i32, float, float, i32, i32, i32, i32, i32, ptr, i64, i64, float, float, i32, i32, ptr, ptr, i32, i32, i32, i32, i32, ptr, ptr, ptr, ptr, i32, i32, [8 x i64], i32, i32, i32, i32, i32, i32, i32, ptr, ptr, i32, i32, i32, i32, i32, i32, i32, i32, i32, i32, ptr, ptr, i32, i32, ptr, ptr, ptr, ptr, i32, i32, i64, i32, i32, i64, ptr, i64, ptr, i32, ptr, i32 }
%struct.AVRational = type { i32, i32 }
%struct.AVChannelLayout = type { i32, i32, %union.anon.1, ptr }
%union.anon.1 = type { i64 }
%struct.PNGEncContext = type { ptr, %struct.LLVidEncDSPContext, ptr, ptr, ptr, i32, %struct.FFZStream, [4096 x i8], i32, i32, i32, i32, i32, i32, i32, i32, i32, ptr, i32, ptr, ptr, %struct.APNGFctlChunk, ptr, i64 }
%struct.LLVidEncDSPContext = type { ptr, ptr, ptr }
%struct.FFZStream = type { %struct.z_stream_s, i32 }
%struct.z_stream_s = type { ptr, i32, i64, ptr, i32, i64, ptr, ptr, ptr, ptr, ptr, i32, i64, i64 }
%struct.APNGFctlChunk = type { i32, i32, i32, i32, i32, i16, i16, i8, i8 }

@.str.20 = private unnamed_addr constant [50 x i8] c"Only one of 'dpi' or 'dpm' options should be set\0A\00", align 1

; Function Attrs: alwaysinline nounwind willreturn memory(none) uwtable
define internal i32 @av_clip_c(i32 noundef %0, i32 noundef %1, i32 noundef %2) #4 {
  %4 = alloca i32, align 4
  %5 = alloca i32, align 4
  %6 = alloca i32, align 4
  %7 = alloca i32, align 4
  store i32 %0, ptr %5, align 4, !tbaa !50
  store i32 %1, ptr %6, align 4, !tbaa !50
  store i32 %2, ptr %7, align 4, !tbaa !50
  %8 = load i32, ptr %5, align 4, !tbaa !50
  %9 = load i32, ptr %6, align 4, !tbaa !50
  %10 = icmp slt i32 %8, %9
  br i1 %10, label %11, label %13

11:                                               ; preds = %3
  %12 = load i32, ptr %6, align 4, !tbaa !50
  store i32 %12, ptr %4, align 4
  br label %21

13:                                               ; preds = %3
  %14 = load i32, ptr %5, align 4, !tbaa !50
  %15 = load i32, ptr %7, align 4, !tbaa !50
  %16 = icmp sgt i32 %14, %15
  br i1 %16, label %17, label %19

17:                                               ; preds = %13
  %18 = load i32, ptr %7, align 4, !tbaa !50
  store i32 %18, ptr %4, align 4
  br label %21

19:                                               ; preds = %13
  %20 = load i32, ptr %5, align 4, !tbaa !50
  store i32 %20, ptr %4, align 4
  br label %21

21:                                               ; preds = %19, %17, %11
  %22 = load i32, ptr %4, align 4
  ret i32 %22
}

; Function Attrs: cold nounwind optsize uwtable
define internal i32 @png_enc_init(ptr noundef %0) #0 {
  %2 = alloca i32, align 4
  %3 = alloca ptr, align 8
  %4 = alloca ptr, align 8
  %5 = alloca i32, align 4
  %6 = alloca i32, align 4
  store ptr %0, ptr %3, align 8, !tbaa !4
  call void @llvm.lifetime.start.p0(i64 8, ptr %4) #13
  %7 = load ptr, ptr %3, align 8, !tbaa !4
  %8 = getelementptr inbounds nuw %struct.AVCodecContext, ptr %7, i32 0, i32 6
  %9 = load ptr, ptr %8, align 8, !tbaa !9
  store ptr %9, ptr %4, align 8, !tbaa !29
  call void @llvm.lifetime.start.p0(i64 4, ptr %5) #13
  %10 = load ptr, ptr %3, align 8, !tbaa !4
  %11 = getelementptr inbounds nuw %struct.AVCodecContext, ptr %10, i32 0, i32 23
  %12 = load i32, ptr %11, align 8, !tbaa !31
  switch i32 %12, label %28 [
    i32 26, label %13
    i32 2, label %16
    i32 8, label %19
    i32 10, label %22
    i32 11, label %25
  ]

13:                                               ; preds = %1
  %14 = load ptr, ptr %3, align 8, !tbaa !4
  %15 = getelementptr inbounds nuw %struct.AVCodecContext, ptr %14, i32 0, i32 114
  store i32 32, ptr %15, align 8, !tbaa !32
  br label %28

16:                                               ; preds = %1
  %17 = load ptr, ptr %3, align 8, !tbaa !4
  %18 = getelementptr inbounds nuw %struct.AVCodecContext, ptr %17, i32 0, i32 114
  store i32 24, ptr %18, align 8, !tbaa !32
  br label %28

19:                                               ; preds = %1
  %20 = load ptr, ptr %3, align 8, !tbaa !4
  %21 = getelementptr inbounds nuw %struct.AVCodecContext, ptr %20, i32 0, i32 114
  store i32 40, ptr %21, align 8, !tbaa !32
  br label %28

22:                                               ; preds = %1
  %23 = load ptr, ptr %3, align 8, !tbaa !4
  %24 = getelementptr inbounds nuw %struct.AVCodecContext, ptr %23, i32 0, i32 114
  store i32 1, ptr %24, align 8, !tbaa !32
  br label %28

25:                                               ; preds = %1
  %26 = load ptr, ptr %3, align 8, !tbaa !4
  %27 = getelementptr inbounds nuw %struct.AVCodecContext, ptr %26, i32 0, i32 114
  store i32 8, ptr %27, align 8, !tbaa !32
  br label %28

28:                                               ; preds = %25, %1, %22, %19, %16, %13
  %29 = load ptr, ptr %4, align 8, !tbaa !29
  %30 = getelementptr inbounds nuw %struct.PNGEncContext, ptr %29, i32 0, i32 1
  call void @ff_llvidencdsp_init(ptr noundef %30)
  %31 = load ptr, ptr %3, align 8, !tbaa !4
  %32 = getelementptr inbounds nuw %struct.AVCodecContext, ptr %31, i32 0, i32 23
  %33 = load i32, ptr %32, align 8, !tbaa !31
  %34 = icmp eq i32 %33, 10
  br i1 %34, label %35, label %38

35:                                               ; preds = %28
  %36 = load ptr, ptr %4, align 8, !tbaa !29
  %37 = getelementptr inbounds nuw %struct.PNGEncContext, ptr %36, i32 0, i32 5
  store i32 0, ptr %37, align 8, !tbaa !33
  br label %38

38:                                               ; preds = %35, %28
  %39 = load ptr, ptr %4, align 8, !tbaa !29
  %40 = getelementptr inbounds nuw %struct.PNGEncContext, ptr %39, i32 0, i32 8
  %41 = load i32, ptr %40, align 8, !tbaa !42
  %42 = icmp ne i32 %41, 0
  br i1 %42, label %43, label %50

43:                                               ; preds = %38
  %44 = load ptr, ptr %4, align 8, !tbaa !29
  %45 = getelementptr inbounds nuw %struct.PNGEncContext, ptr %44, i32 0, i32 9
  %46 = load i32, ptr %45, align 4, !tbaa !43
  %47 = icmp ne i32 %46, 0
  br i1 %47, label %48, label %50

48:                                               ; preds = %43
  %49 = load ptr, ptr %3, align 8, !tbaa !4
  call void (ptr, i32, ptr, ...) @av_log(ptr noundef %49, i32 noundef 16, ptr noundef @.str.20)
  store i32 -22, ptr %2, align 4
  store i32 1, ptr %6, align 4
  br label %157

50:                                               ; preds = %43, %38
  %51 = load ptr, ptr %4, align 8, !tbaa !29
  %52 = getelementptr inbounds nuw %struct.PNGEncContext, ptr %51, i32 0, i32 8
  %53 = load i32, ptr %52, align 8, !tbaa !42
  %54 = icmp ne i32 %53, 0
  br i1 %54, label %55, label %63

55:                                               ; preds = %50
  %56 = load ptr, ptr %4, align 8, !tbaa !29
  %57 = getelementptr inbounds nuw %struct.PNGEncContext, ptr %56, i32 0, i32 8
  %58 = load i32, ptr %57, align 8, !tbaa !42
  %59 = mul nsw i32 %58, 10000
  %60 = sdiv i32 %59, 254
  %61 = load ptr, ptr %4, align 8, !tbaa !29
  %62 = getelementptr inbounds nuw %struct.PNGEncContext, ptr %61, i32 0, i32 9
  store i32 %60, ptr %62, align 4, !tbaa !43
  br label %63

63:                                               ; preds = %55, %50
  br label %64

64:                                               ; preds = %63
  %65 = load ptr, ptr %3, align 8, !tbaa !4
  %66 = getelementptr inbounds nuw %struct.AVCodecContext, ptr %65, i32 0, i32 10
  %67 = load i32, ptr %66, align 8, !tbaa !44
  %68 = and i32 %67, 262144
  %69 = icmp ne i32 %68, 0
  %70 = xor i1 %69, true
  %71 = xor i1 %70, true
  %72 = zext i1 %71 to i32
  %73 = load ptr, ptr %4, align 8, !tbaa !29
  %74 = getelementptr inbounds nuw %struct.PNGEncContext, ptr %73, i32 0, i32 10
  store i32 %72, ptr %74, align 8, !tbaa !45
  %75 = load ptr, ptr %3, align 8, !tbaa !4
  %76 = getelementptr inbounds nuw %struct.AVCodecContext, ptr %75, i32 0, i32 23
  %77 = load i32, ptr %76, align 8, !tbaa !31
  switch i32 %77, label %128 [
    i32 104, label %78
    i32 34, label %83
    i32 26, label %88
    i32 2, label %93
    i32 29, label %98
    i32 8, label %103
    i32 56, label %108
    i32 109, label %113
    i32 10, label %118
    i32 11, label %123
  ]

78:                                               ; preds = %64
  %79 = load ptr, ptr %4, align 8, !tbaa !29
  %80 = getelementptr inbounds nuw %struct.PNGEncContext, ptr %79, i32 0, i32 11
  store i32 16, ptr %80, align 4, !tbaa !46
  %81 = load ptr, ptr %4, align 8, !tbaa !29
  %82 = getelementptr inbounds nuw %struct.PNGEncContext, ptr %81, i32 0, i32 12
  store i32 6, ptr %82, align 8, !tbaa !47
  br label %129

83:                                               ; preds = %64
  %84 = load ptr, ptr %4, align 8, !tbaa !29
  %85 = getelementptr inbounds nuw %struct.PNGEncContext, ptr %84, i32 0, i32 11
  store i32 16, ptr %85, align 4, !tbaa !46
  %86 = load ptr, ptr %4, align 8, !tbaa !29
  %87 = getelementptr inbounds nuw %struct.PNGEncContext, ptr %86, i32 0, i32 12
  store i32 2, ptr %87, align 8, !tbaa !47
  br label %129

88:                                               ; preds = %64
  %89 = load ptr, ptr %4, align 8, !tbaa !29
  %90 = getelementptr inbounds nuw %struct.PNGEncContext, ptr %89, i32 0, i32 11
  store i32 8, ptr %90, align 4, !tbaa !46
  %91 = load ptr, ptr %4, align 8, !tbaa !29
  %92 = getelementptr inbounds nuw %struct.PNGEncContext, ptr %91, i32 0, i32 12
  store i32 6, ptr %92, align 8, !tbaa !47
  br label %129

93:                                               ; preds = %64
  %94 = load ptr, ptr %4, align 8, !tbaa !29
  %95 = getelementptr inbounds nuw %struct.PNGEncContext, ptr %94, i32 0, i32 11
  store i32 8, ptr %95, align 4, !tbaa !46
  %96 = load ptr, ptr %4, align 8, !tbaa !29
  %97 = getelementptr inbounds nuw %struct.PNGEncContext, ptr %96, i32 0, i32 12
  store i32 2, ptr %97, align 8, !tbaa !47
  br label %129

98:                                               ; preds = %64
  %99 = load ptr, ptr %4, align 8, !tbaa !29
  %100 = getelementptr inbounds nuw %struct.PNGEncContext, ptr %99, i32 0, i32 11
  store i32 16, ptr %100, align 4, !tbaa !46
  %101 = load ptr, ptr %4, align 8, !tbaa !29
  %102 = getelementptr inbounds nuw %struct.PNGEncContext, ptr %101, i32 0, i32 12
  store i32 0, ptr %102, align 8, !tbaa !47
  br label %129

103:                                              ; preds = %64
  %104 = load ptr, ptr %4, align 8, !tbaa !29
  %105 = getelementptr inbounds nuw %struct.PNGEncContext, ptr %104, i32 0, i32 11
  store i32 8, ptr %105, align 4, !tbaa !46
  %106 = load ptr, ptr %4, align 8, !tbaa !29
  %107 = getelementptr inbounds nuw %struct.PNGEncContext, ptr %106, i32 0, i32 12
  store i32 0, ptr %107, align 8, !tbaa !47
  br label %129

108:                                              ; preds = %64
  %109 = load ptr, ptr %4, align 8, !tbaa !29
  %110 = getelementptr inbounds nuw %struct.PNGEncContext, ptr %109, i32 0, i32 11
  store i32 8, ptr %110, align 4, !tbaa !46
  %111 = load ptr, ptr %4, align 8, !tbaa !29
  %112 = getelementptr inbounds nuw %struct.PNGEncContext, ptr %111, i32 0, i32 12
  store i32 4, ptr %112, align 8, !tbaa !47
  br label %129

113:                                              ; preds = %64
  %114 = load ptr, ptr %4, align 8, !tbaa !29
  %115 = getelementptr inbounds nuw %struct.PNGEncContext, ptr %114, i32 0, i32 11
  store i32 16, ptr %115, align 4, !tbaa !46
  %116 = load ptr, ptr %4, align 8, !tbaa !29
  %117 = getelementptr inbounds nuw %struct.PNGEncContext, ptr %116, i32 0, i32 12
  store i32 4, ptr %117, align 8, !tbaa !47
  br label %129

118:                                              ; preds = %64
  %119 = load ptr, ptr %4, align 8, !tbaa !29
  %120 = getelementptr inbounds nuw %struct.PNGEncContext, ptr %119, i32 0, i32 11
  store i32 1, ptr %120, align 4, !tbaa !46
  %121 = load ptr, ptr %4, align 8, !tbaa !29
  %122 = getelementptr inbounds nuw %struct.PNGEncContext, ptr %121, i32 0, i32 12
  store i32 0, ptr %122, align 8, !tbaa !47
  br label %129

123:                                              ; preds = %64
  %124 = load ptr, ptr %4, align 8, !tbaa !29
  %125 = getelementptr inbounds nuw %struct.PNGEncContext, ptr %124, i32 0, i32 11
  store i32 8, ptr %125, align 4, !tbaa !46
  %126 = load ptr, ptr %4, align 8, !tbaa !29
  %127 = getelementptr inbounds nuw %struct.PNGEncContext, ptr %126, i32 0, i32 12
  store i32 3, ptr %127, align 8, !tbaa !47
  br label %129

128:                                              ; preds = %64
  store i32 -1, ptr %2, align 4
  store i32 1, ptr %6, align 4
  br label %157

129:                                              ; preds = %123, %118, %113, %108, %103, %98, %93, %88, %83, %78
  %130 = load ptr, ptr %4, align 8, !tbaa !29
  %131 = getelementptr inbounds nuw %struct.PNGEncContext, ptr %130, i32 0, i32 12
  %132 = load i32, ptr %131, align 8, !tbaa !47
  %133 = call i32 @ff_png_get_nb_channels(i32 noundef %132)
  %134 = load ptr, ptr %4, align 8, !tbaa !29
  %135 = getelementptr inbounds nuw %struct.PNGEncContext, ptr %134, i32 0, i32 11
  %136 = load i32, ptr %135, align 4, !tbaa !46
  %137 = mul nsw i32 %133, %136
  %138 = load ptr, ptr %4, align 8, !tbaa !29
  %139 = getelementptr inbounds nuw %struct.PNGEncContext, ptr %138, i32 0, i32 13
  store i32 %137, ptr %139, align 4, !tbaa !48
  %140 = load ptr, ptr %3, align 8, !tbaa !4
  %141 = getelementptr inbounds nuw %struct.AVCodecContext, ptr %140, i32 0, i32 83
  %142 = load i32, ptr %141, align 8, !tbaa !49
  %143 = icmp eq i32 %142, -1
  br i1 %143, label %144, label %145

144:                                              ; preds = %129
  br label %150

145:                                              ; preds = %129
  %146 = load ptr, ptr %3, align 8, !tbaa !4
  %147 = getelementptr inbounds nuw %struct.AVCodecContext, ptr %146, i32 0, i32 83
  %148 = load i32, ptr %147, align 8, !tbaa !49
  %149 = call i32 @av_clip_c(i32 noundef %148, i32 noundef 0, i32 noundef 9) #14
  br label %150

150:                                              ; preds = %145, %144
  %151 = phi i32 [ -1, %144 ], [ %149, %145 ]
  store i32 %151, ptr %5, align 4, !tbaa !50
  %152 = load ptr, ptr %4, align 8, !tbaa !29
  %153 = getelementptr inbounds nuw %struct.PNGEncContext, ptr %152, i32 0, i32 6
  %154 = load i32, ptr %5, align 4, !tbaa !50
  %155 = load ptr, ptr %3, align 8, !tbaa !4
  %156 = call i32 @ff_deflate_init(ptr noundef %153, i32 noundef %154, ptr noundef %155)
  store i32 %156, ptr %2, align 4
  store i32 1, ptr %6, align 4
  br label %157

157:                                              ; preds = %150, %128, %48
  call void @llvm.lifetime.end.p0(i64 4, ptr %5) #13
  call void @llvm.lifetime.end.p0(i64 8, ptr %4) #13
  %158 = load i32, ptr %2, align 4
  ret i32 %158
}