; Function Attrs: cold nounwind optsize uwtable
define internal i32 @png_enc_init(ptr noundef %0) #0 {
  %2 = getelementptr inbounds nuw i8, ptr %0, i64 32
  %3 = load ptr, ptr %2, align 8, !tbaa !4
  %4 = getelementptr inbounds nuw i8, ptr %0, i64 136
  %5 = load i32, ptr %4, align 8, !tbaa !27
  switch i32 %5, label %11 [
    i32 26, label %.sink.split
    i32 2, label %6
    i32 8, label %7
    i32 10, label %8
    i32 11, label %9
  ]

6:                                                ; preds = %1
  br label %.sink.split

7:                                                ; preds = %1
  br label %.sink.split

8:                                                ; preds = %1
  br label %.sink.split

9:                                                ; preds = %1
  br label %.sink.split

.sink.split:                                      ; preds = %1, %6, %7, %8, %9
  %.sink = phi i32 [ 8, %9 ], [ 1, %8 ], [ 40, %7 ], [ 24, %6 ], [ 32, %1 ]
  %10 = getelementptr inbounds nuw i8, ptr %0, i64 648
  store i32 %.sink, ptr %10, align 8, !tbaa !28
  br label %11

11:                                               ; preds = %.sink.split, %1
  %12 = getelementptr inbounds nuw i8, ptr %3, i64 8
  tail call void @ff_llvidencdsp_init(ptr noundef nonnull %12) #11
  %13 = load i32, ptr %4, align 8, !tbaa !27
  %14 = icmp eq i32 %13, 10
  br i1 %14, label %15, label %17

15:                                               ; preds = %11
  %16 = getelementptr inbounds nuw i8, ptr %3, i64 56
  store i32 0, ptr %16, align 8, !tbaa !29
  br label %17

17:                                               ; preds = %15, %11
  %18 = getelementptr inbounds nuw i8, ptr %3, i64 4280
  %19 = load i32, ptr %18, align 8, !tbaa !38
  %.not = icmp eq i32 %19, 0
  br i1 %.not, label %.thread, label %20

20:                                               ; preds = %17
  %21 = getelementptr inbounds nuw i8, ptr %3, i64 4284
  %22 = load i32, ptr %21, align 4, !tbaa !39
  %.not49 = icmp eq i32 %22, 0
  br i1 %.not49, label %24, label %23

23:                                               ; preds = %20
  tail call void (ptr, i32, ptr, ...) @av_log(ptr noundef nonnull %0, i32 noundef 16, ptr noundef nonnull @.str.20) #11
  br label %56

24:                                               ; preds = %20
  %25 = mul nsw i32 %19, 10000
  %26 = sdiv i32 %25, 254
  store i32 %26, ptr %21, align 4, !tbaa !39
  br label %.thread

.thread:                                          ; preds = %17, %24
  %27 = getelementptr inbounds nuw i8, ptr %0, i64 64
  %28 = load i32, ptr %27, align 8, !tbaa !40
  %29 = lshr i32 %28, 18
  %.lobit = and i32 %29, 1
  %30 = getelementptr inbounds nuw i8, ptr %3, i64 4288
  store i32 %.lobit, ptr %30, align 8, !tbaa !41
  switch i32 %13, label %56 [
    i32 104, label %40
    i32 34, label %31
    i32 26, label %32
    i32 2, label %33
    i32 29, label %34
    i32 8, label %35
    i32 56, label %36
    i32 109, label %37
    i32 10, label %38
    i32 11, label %39
  ]

31:                                               ; preds = %.thread
  br label %40

32:                                               ; preds = %.thread
  br label %40

33:                                               ; preds = %.thread
  br label %40

34:                                               ; preds = %.thread
  br label %40

35:                                               ; preds = %.thread
  br label %40

36:                                               ; preds = %.thread
  br label %40

37:                                               ; preds = %.thread
  br label %40

38:                                               ; preds = %.thread
  br label %40

39:                                               ; preds = %.thread
  br label %40

40:                                               ; preds = %.thread, %39, %38, %37, %36, %35, %34, %33, %32, %31
  %.sink54 = phi i32 [ 8, %39 ], [ 1, %38 ], [ 16, %37 ], [ 8, %36 ], [ 8, %35 ], [ 16, %34 ], [ 8, %33 ], [ 8, %32 ], [ 16, %31 ], [ 16, %.thread ]
  %.sink52 = phi i32 [ 3, %39 ], [ 0, %38 ], [ 4, %37 ], [ 4, %36 ], [ 0, %35 ], [ 0, %34 ], [ 2, %33 ], [ 6, %32 ], [ 2, %31 ], [ 6, %.thread ]
  %41 = getelementptr inbounds nuw i8, ptr %3, i64 4292
  store i32 %.sink54, ptr %41, align 4, !tbaa !42
  %42 = getelementptr inbounds nuw i8, ptr %3, i64 4296
  store i32 %.sink52, ptr %42, align 8, !tbaa !43
  %43 = tail call i32 @ff_png_get_nb_channels(i32 noundef %.sink52) #11
  %44 = getelementptr inbounds nuw i8, ptr %3, i64 4292
  %45 = load i32, ptr %44, align 4, !tbaa !42
  %46 = mul nsw i32 %45, %43
  %47 = getelementptr inbounds nuw i8, ptr %3, i64 4300
  store i32 %46, ptr %47, align 4, !tbaa !44
  %48 = getelementptr inbounds nuw i8, ptr %0, i64 424
  %49 = load i32, ptr %48, align 8, !tbaa !45
  %50 = icmp eq i32 %49, -1
  %51 = tail call i32 @llvm.smax.i32(i32 %49, i32 0)
  %52 = tail call i32 @llvm.umin.i32(i32 %51, i32 9)
  %53 = select i1 %50, i32 -1, i32 %52
  %54 = getelementptr inbounds nuw i8, ptr %3, i64 64
  %55 = tail call i32 @ff_deflate_init(ptr noundef nonnull %54, i32 noundef %53, ptr noundef nonnull %0) #11
  br label %56

56:                                               ; preds = %.thread, %40, %23
  %.0 = phi i32 [ -22, %23 ], [ %55, %40 ], [ -1, %.thread ]
  ret i32 %.0
}